target datalayout = "e-m:e-p270:32:32-p271:32:32-p272:64:64-i64:64-i128:128-f80:128-n8:16:32:64-S128"
target triple = "x86_64-pc-linux-gnu"

%"struct.boost::debug::(anonymous namespace)::fd_holder" = type { i32 }

; Function Attrs: mustprogress nounwind uwtable
define internal void @_ZN5boost5debug12_GLOBAL__N_19fd_holderD2Ev(ptr noundef nonnull align 4 dereferenceable(4) %0) unnamed_addr #5 align 2 personality ptr @__gxx_personality_v0 {
  %2 = alloca ptr, align 8
  store ptr %0, ptr %2, align 8, !tbaa !3
  %3 = load ptr, ptr %2, align 8
  %4 = getelementptr inbounds nuw %"struct.boost::debug::(anonymous namespace)::fd_holder", ptr %3, i32 0, i32 0
  %5 = load i32, ptr %4, align 4, !tbaa !31
  %6 = icmp ne i32 %5, -1
  br i1 %6, label %7, label %12

7:                                                ; preds = %1
  %8 = getelementptr inbounds nuw %"struct.boost::debug::(anonymous namespace)::fd_holder", ptr %3, i32 0, i32 0
  %9 = load i32, ptr %8, align 4, !tbaa !31
  %10 = invoke i32 @close(i32 noundef %9)
          to label %11 unwind label %13

11:                                               ; preds = %7
  br label %12

12:                                               ; preds = %11, %1
  ret void

13:                                               ; preds = %7
  %14 = landingpad { ptr, i32 }
          catch ptr null
  %15 = extractvalue { ptr, i32 } %14, 0
  call void @__clang_call_terminate(ptr %15) #23
  unreachable
}