; Function Attrs: mustprogress nounwind uwtable
define internal fastcc void @_ZN5boost5debug12_GLOBAL__N_19fd_holderD2Ev(i32 %.0.val) unnamed_addr #5 align 2 personality ptr @__gxx_personality_v0 {
  %.not = icmp eq i32 %.0.val, -1
  br i1 %.not, label %3, label %1

1:                                                ; preds = %0
  %2 = invoke i32 @close(i32 noundef %.0.val)
          to label %3 unwind label %4

3:                                                ; preds = %1, %0
  ret void

4:                                                ; preds = %1
  %5 = landingpad { ptr, i32 }
          catch ptr null
  %6 = extractvalue { ptr, i32 } %5, 0
  tail call void @__clang_call_terminate(ptr %6) #30
  unreachable
}